target datalayout = "e-m:e-p270:32:32-p271:32:32-p272:64:64-i64:64-i128:128-f80:128-n8:16:32:64-S128"
target triple = "x86_64-pc-linux-gnu"

%union.ufmt_args = type { i64 }
%struct.u_scanf_spec_info = type { i32, i16, i16, i8, i8, i8, i8, i8, i8 }
%struct.UFILE = type { ptr, ptr, ptr, %struct.u_localized_string, [1024 x i16], i8, i32 }
%struct.u_localized_string = type { ptr, ptr, ptr, %struct.ULocaleBundle }
%struct.ULocaleBundle = type { ptr, [5 x ptr], i8 }

; Function Attrs: mustprogress uwtable
define internal noundef i32 @_ZL23u_scanf_skip_leading_wsP5UFILEDs(ptr noundef %0, i16 noundef zeroext %1) #0 {
  %3 = alloca ptr, align 8
  %4 = alloca i16, align 2
  %5 = alloca i16, align 2
  %6 = alloca i32, align 4
  %7 = alloca i8, align 1
  store ptr %0, ptr %3, align 8, !tbaa !3
  store i16 %1, ptr %4, align 2, !tbaa !14
  call void @llvm.lifetime.start.p0(i64 2, ptr %5) #5
  call void @llvm.lifetime.start.p0(i64 4, ptr %6) #5
  store i32 0, ptr %6, align 4, !tbaa !12
  call void @llvm.lifetime.start.p0(i64 1, ptr %7) #5
  br label %8

8:                                                ; preds = %28, %2
  %9 = load ptr, ptr %3, align 8, !tbaa !3
  %10 = call signext i8 @ufile_getch_77(ptr noundef %9, ptr noundef %5)
  store i8 %10, ptr %7, align 1, !tbaa !28
  %11 = sext i8 %10 to i32
  %12 = icmp eq i32 %11, 1
  br i1 %12, label %13, label %26

13:                                               ; preds = %8
  %14 = load i16, ptr %5, align 2, !tbaa !14
  %15 = zext i16 %14 to i32
  %16 = load i16, ptr %4, align 2, !tbaa !14
  %17 = zext i16 %16 to i32
  %18 = icmp eq i32 %15, %17
  br i1 %18, label %24, label %19

19:                                               ; preds = %13
  %20 = load i16, ptr %5, align 2, !tbaa !14
  %21 = zext i16 %20 to i32
  %22 = call signext i8 @u_isWhitespace_77(i32 noundef %21)
  %23 = icmp ne i8 %22, 0
  br label %24

24:                                               ; preds = %19, %13
  %25 = phi i1 [ true, %13 ], [ %23, %19 ]
  br label %26

26:                                               ; preds = %24, %8
  %27 = phi i1 [ false, %8 ], [ %25, %24 ]
  br i1 %27, label %28, label %31

28:                                               ; preds = %26
  %29 = load i32, ptr %6, align 4, !tbaa !12
  %30 = add nsw i32 %29, 1
  store i32 %30, ptr %6, align 4, !tbaa !12
  br label %8, !llvm.loop !82

31:                                               ; preds = %26
  %32 = load i8, ptr %7, align 1, !tbaa !28
  %33 = icmp ne i8 %32, 0
  br i1 %33, label %34, label %39

34:                                               ; preds = %31
  %35 = load i16, ptr %5, align 2, !tbaa !14
  %36 = zext i16 %35 to i32
  %37 = load ptr, ptr %3, align 8, !tbaa !3
  %38 = call i32 @u_fungetc_77(i32 noundef %36, ptr noundef %37)
  br label %39

39:                                               ; preds = %34, %31
  %40 = load i32, ptr %6, align 4, !tbaa !12
  call void @llvm.lifetime.end.p0(i64 1, ptr %7) #5
  call void @llvm.lifetime.end.p0(i64 4, ptr %6) #5
  call void @llvm.lifetime.end.p0(i64 2, ptr %5) #5
  ret i32 %40
}

; Function Attrs: mustprogress uwtable
define internal noundef i32 @_ZL22u_scanf_scidbl_handlerP5UFILEP17u_scanf_spec_infoP9ufmt_argsPKDsPiS7_(ptr noundef %0, ptr noundef %1, ptr noundef %2, ptr noundef %3, ptr noundef %4, ptr noundef %5) #0 {
  %7 = alloca i32, align 4
  %8 = alloca ptr, align 8
  %9 = alloca ptr, align 8
  %10 = alloca ptr, align 8
  %11 = alloca ptr, align 8
  %12 = alloca ptr, align 8
  %13 = alloca ptr, align 8
  %14 = alloca i32, align 4
  %15 = alloca double, align 8
  %16 = alloca ptr, align 8
  %17 = alloca ptr, align 8
  %18 = alloca double, align 8
  %19 = alloca double, align 8
  %20 = alloca i32, align 4
  %21 = alloca i32, align 4
  %22 = alloca i32, align 4
  %23 = alloca i32, align 4
  %24 = alloca i32, align 4
  %25 = alloca i32, align 4
  %26 = alloca i32, align 4
  store ptr %0, ptr %8, align 8, !tbaa !3
  store ptr %1, ptr %9, align 8, !tbaa !35
  store ptr %2, ptr %10, align 8, !tbaa !50
  store ptr %3, ptr %11, align 8, !tbaa !8
  store ptr %4, ptr %12, align 8, !tbaa !52
  store ptr %5, ptr %13, align 8, !tbaa !52
  call void @llvm.lifetime.start.p0(i64 4, ptr %14) #5
  call void @llvm.lifetime.start.p0(i64 8, ptr %15) #5
  call void @llvm.lifetime.start.p0(i64 8, ptr %16) #5
  call void @llvm.lifetime.start.p0(i64 8, ptr %17) #5
  call void @llvm.lifetime.start.p0(i64 8, ptr %18) #5
  call void @llvm.lifetime.start.p0(i64 8, ptr %19) #5
  call void @llvm.lifetime.start.p0(i64 4, ptr %20) #5
  store i32 0, ptr %20, align 4, !tbaa !12
  call void @llvm.lifetime.start.p0(i64 4, ptr %21) #5
  store i32 0, ptr %21, align 4, !tbaa !12
  call void @llvm.lifetime.start.p0(i64 4, ptr %22) #5
  store i32 0, ptr %22, align 4, !tbaa !12
  call void @llvm.lifetime.start.p0(i64 4, ptr %23) #5
  call void @llvm.lifetime.start.p0(i64 4, ptr %24) #5
  store i32 0, ptr %24, align 4, !tbaa !54
  call void @llvm.lifetime.start.p0(i64 4, ptr %25) #5
  store i32 0, ptr %25, align 4, !tbaa !54
  %27 = load ptr, ptr %8, align 8, !tbaa !3
  %28 = load ptr, ptr %9, align 8, !tbaa !35
  %29 = getelementptr inbounds nuw %struct.u_scanf_spec_info, ptr %28, i32 0, i32 2
  %30 = load i16, ptr %29, align 2, !tbaa !40
  %31 = call noundef i32 @_ZL23u_scanf_skip_leading_wsP5UFILEDs(ptr noundef %27, i16 noundef zeroext %30)
  store i32 %31, ptr %23, align 4, !tbaa !12
  %32 = load ptr, ptr %8, align 8, !tbaa !3
  call void @_Z26ufile_fill_uchar_buffer_77P5UFILE(ptr noundef %32)
  %33 = load ptr, ptr %8, align 8, !tbaa !3
  %34 = getelementptr inbounds nuw %struct.UFILE, ptr %33, i32 0, i32 3
  %35 = getelementptr inbounds nuw %struct.u_localized_string, ptr %34, i32 0, i32 1
  %36 = load ptr, ptr %35, align 8, !tbaa !56
  %37 = load ptr, ptr %8, align 8, !tbaa !3
  %38 = getelementptr inbounds nuw %struct.UFILE, ptr %37, i32 0, i32 3
  %39 = getelementptr inbounds nuw %struct.u_localized_string, ptr %38, i32 0, i32 0
  %40 = load ptr, ptr %39, align 8, !tbaa !63
  %41 = ptrtoint ptr %36 to i64
  %42 = ptrtoint ptr %40 to i64
  %43 = sub i64 %41, %42
  %44 = sdiv exact i64 %43, 2
  %45 = trunc i64 %44 to i32
  store i32 %45, ptr %14, align 4, !tbaa !12
  %46 = load ptr, ptr %9, align 8, !tbaa !35
  %47 = getelementptr inbounds nuw %struct.u_scanf_spec_info, ptr %46, i32 0, i32 0
  %48 = load i32, ptr %47, align 4, !tbaa !38
  %49 = icmp ne i32 %48, -1
  br i1 %49, label %50, label %64

50:                                               ; preds = %6
  %51 = load i32, ptr %14, align 4, !tbaa !12
  %52 = load ptr, ptr %9, align 8, !tbaa !35
  %53 = getelementptr inbounds nuw %struct.u_scanf_spec_info, ptr %52, i32 0, i32 0
  %54 = load i32, ptr %53, align 4, !tbaa !38
  %55 = icmp slt i32 %51, %54
  br i1 %55, label %56, label %58

56:                                               ; preds = %50
  %57 = load i32, ptr %14, align 4, !tbaa !12
  br label %62

58:                                               ; preds = %50
  %59 = load ptr, ptr %9, align 8, !tbaa !35
  %60 = getelementptr inbounds nuw %struct.u_scanf_spec_info, ptr %59, i32 0, i32 0
  %61 = load i32, ptr %60, align 4, !tbaa !38
  br label %62

62:                                               ; preds = %58, %56
  %63 = phi i32 [ %57, %56 ], [ %61, %58 ]
  store i32 %63, ptr %14, align 4, !tbaa !12
  br label %64

64:                                               ; preds = %62, %6
  %65 = load ptr, ptr %8, align 8, !tbaa !3
  %66 = getelementptr inbounds nuw %struct.UFILE, ptr %65, i32 0, i32 3
  %67 = getelementptr inbounds nuw %struct.u_localized_string, ptr %66, i32 0, i32 3
  %68 = call ptr @u_locbund_getNumberFormat_77(ptr noundef %67, i32 noundef 4)
  store ptr %68, ptr %16, align 8, !tbaa !64
  %69 = load ptr, ptr %8, align 8, !tbaa !3
  %70 = getelementptr inbounds nuw %struct.UFILE, ptr %69, i32 0, i32 3
  %71 = getelementptr inbounds nuw %struct.u_localized_string, ptr %70, i32 0, i32 3
  %72 = call ptr @u_locbund_getNumberFormat_77(ptr noundef %71, i32 noundef 1)
  store ptr %72, ptr %17, align 8, !tbaa !64
  %73 = load ptr, ptr %16, align 8, !tbaa !64
  %74 = icmp eq ptr %73, null
  br i1 %74, label %78, label %75

75:                                               ; preds = %64
  %76 = load ptr, ptr %17, align 8, !tbaa !64
  %77 = icmp eq ptr %76, null
  br i1 %77, label %78, label %79

78:                                               ; preds = %75, %64
  store i32 0, ptr %7, align 4
  store i32 1, ptr %26, align 4
  br label %164

79:                                               ; preds = %75
  %80 = load ptr, ptr %8, align 8, !tbaa !3
  %81 = load ptr, ptr %17, align 8, !tbaa !64
  %82 = call noundef i32 @_ZL34u_scanf_skip_leading_positive_signP5UFILEPPvP10UErrorCode(ptr noundef %80, ptr noundef %81, ptr noundef %25)
  %83 = load i32, ptr %23, align 4, !tbaa !12
  %84 = add nsw i32 %83, %82
  store i32 %84, ptr %23, align 4, !tbaa !12
  %85 = load ptr, ptr %16, align 8, !tbaa !64
  %86 = load ptr, ptr %8, align 8, !tbaa !3
  %87 = getelementptr inbounds nuw %struct.UFILE, ptr %86, i32 0, i32 3
  %88 = getelementptr inbounds nuw %struct.u_localized_string, ptr %87, i32 0, i32 0
  %89 = load ptr, ptr %88, align 8, !tbaa !63
  %90 = load i32, ptr %14, align 4, !tbaa !12
  %91 = call double @unum_parseDouble_77(ptr noundef %85, ptr noundef %89, i32 noundef %90, ptr noundef %20, ptr noundef %24)
  store double %91, ptr %18, align 8, !tbaa !67
  %92 = load ptr, ptr %17, align 8, !tbaa !64
  %93 = load ptr, ptr %8, align 8, !tbaa !3
  %94 = getelementptr inbounds nuw %struct.UFILE, ptr %93, i32 0, i32 3
  %95 = getelementptr inbounds nuw %struct.u_localized_string, ptr %94, i32 0, i32 0
  %96 = load ptr, ptr %95, align 8, !tbaa !63
  %97 = load i32, ptr %14, align 4, !tbaa !12
  %98 = call double @unum_parseDouble_77(ptr noundef %92, ptr noundef %96, i32 noundef %97, ptr noundef %21, ptr noundef %25)
  store double %98, ptr %19, align 8, !tbaa !67
  %99 = load i32, ptr %20, align 4, !tbaa !12
  %100 = load i32, ptr %21, align 4, !tbaa !12
  %101 = icmp sgt i32 %99, %100
  br i1 %101, label %102, label %107

102:                                              ; preds = %79
  %103 = load double, ptr %18, align 8, !tbaa !67
  store double %103, ptr %15, align 8, !tbaa !67
  %104 = load i32, ptr %20, align 4, !tbaa !12
  %105 = load i32, ptr %22, align 4, !tbaa !12
  %106 = add nsw i32 %105, %104
  store i32 %106, ptr %22, align 4, !tbaa !12
  br label %112

107:                                              ; preds = %79
  %108 = load double, ptr %19, align 8, !tbaa !67
  store double %108, ptr %15, align 8, !tbaa !67
  %109 = load i32, ptr %21, align 4, !tbaa !12
  %110 = load i32, ptr %22, align 4, !tbaa !12
  %111 = add nsw i32 %110, %109
  store i32 %111, ptr %22, align 4, !tbaa !12
  br label %112

112:                                              ; preds = %107, %102
  %113 = load i32, ptr %22, align 4, !tbaa !12
  %114 = load ptr, ptr %8, align 8, !tbaa !3
  %115 = getelementptr inbounds nuw %struct.UFILE, ptr %114, i32 0, i32 3
  %116 = getelementptr inbounds nuw %struct.u_localized_string, ptr %115, i32 0, i32 0
  %117 = load ptr, ptr %116, align 8, !tbaa !63
  %118 = sext i32 %113 to i64
  %119 = getelementptr inbounds i16, ptr %117, i64 %118
  store ptr %119, ptr %116, align 8, !tbaa !63
  %120 = load ptr, ptr %9, align 8, !tbaa !35
  %121 = getelementptr inbounds nuw %struct.u_scanf_spec_info, ptr %120, i32 0, i32 3
  %122 = load i8, ptr %121, align 4, !tbaa !41
  %123 = icmp ne i8 %122, 0
  br i1 %123, label %153, label %124

124:                                              ; preds = %112
  %125 = load ptr, ptr %9, align 8, !tbaa !35
  %126 = getelementptr inbounds nuw %struct.u_scanf_spec_info, ptr %125, i32 0, i32 6
  %127 = load i8, ptr %126, align 1, !tbaa !44
  %128 = icmp ne i8 %127, 0
  br i1 %128, label %129, label %134

129:                                              ; preds = %124
  %130 = load double, ptr %15, align 8, !tbaa !67
  %131 = load ptr, ptr %10, align 8, !tbaa !50
  %132 = getelementptr inbounds %union.ufmt_args, ptr %131, i64 0
  %133 = load ptr, ptr %132, align 8, !tbaa !28
  store double %130, ptr %133, align 8, !tbaa !67
  br label %152

134:                                              ; preds = %124
  %135 = load ptr, ptr %9, align 8, !tbaa !35
  %136 = getelementptr inbounds nuw %struct.u_scanf_spec_info, ptr %135, i32 0, i32 4
  %137 = load i8, ptr %136, align 1, !tbaa !42
  %138 = icmp ne i8 %137, 0
  br i1 %138, label %139, label %145

139:                                              ; preds = %134
  %140 = load double, ptr %15, align 8, !tbaa !67
  %141 = fpext double %140 to x86_fp80
  %142 = load ptr, ptr %10, align 8, !tbaa !50
  %143 = getelementptr inbounds %union.ufmt_args, ptr %142, i64 0
  %144 = load ptr, ptr %143, align 8, !tbaa !28
  store x86_fp80 %141, ptr %144, align 16, !tbaa !69
  br label %151

145:                                              ; preds = %134
  %146 = load double, ptr %15, align 8, !tbaa !67
  %147 = fptrunc double %146 to float
  %148 = load ptr, ptr %10, align 8, !tbaa !50
  %149 = getelementptr inbounds %union.ufmt_args, ptr %148, i64 0
  %150 = load ptr, ptr %149, align 8, !tbaa !28
  store float %147, ptr %150, align 4, !tbaa !71
  br label %151

151:                                              ; preds = %145, %139
  br label %152

152:                                              ; preds = %151, %129
  br label %153

153:                                              ; preds = %152, %112
  %154 = load ptr, ptr %9, align 8, !tbaa !35
  %155 = getelementptr inbounds nuw %struct.u_scanf_spec_info, ptr %154, i32 0, i32 3
  %156 = load i8, ptr %155, align 4, !tbaa !41
  %157 = icmp ne i8 %156, 0
  %158 = xor i1 %157, true
  %159 = zext i1 %158 to i32
  %160 = load ptr, ptr %13, align 8, !tbaa !52
  store i32 %159, ptr %160, align 4, !tbaa !12
  %161 = load i32, ptr %22, align 4, !tbaa !12
  %162 = load i32, ptr %23, align 4, !tbaa !12
  %163 = add nsw i32 %161, %162
  store i32 %163, ptr %7, align 4
  store i32 1, ptr %26, align 4
  br label %164

164:                                              ; preds = %153, %78
  call void @llvm.lifetime.end.p0(i64 4, ptr %25) #5
  call void @llvm.lifetime.end.p0(i64 4, ptr %24) #5
  call void @llvm.lifetime.end.p0(i64 4, ptr %23) #5
  call void @llvm.lifetime.end.p0(i64 4, ptr %22) #5
  call void @llvm.lifetime.end.p0(i64 4, ptr %21) #5
  call void @llvm.lifetime.end.p0(i64 4, ptr %20) #5
  call void @llvm.lifetime.end.p0(i64 8, ptr %19) #5
  call void @llvm.lifetime.end.p0(i64 8, ptr %18) #5
  call void @llvm.lifetime.end.p0(i64 8, ptr %17) #5
  call void @llvm.lifetime.end.p0(i64 8, ptr %16) #5
  call void @llvm.lifetime.end.p0(i64 8, ptr %15) #5
  call void @llvm.lifetime.end.p0(i64 4, ptr %14) #5
  %165 = load i32, ptr %7, align 4
  ret i32 %165
}