; Function Attrs: mustprogress uwtable
define internal noundef i32 @_ZL22u_scanf_scidbl_handlerP5UFILEP17u_scanf_spec_infoP9ufmt_argsPKDsPiS7_(ptr noundef %0, ptr noundef readonly captures(none) %1, ptr noundef readonly captures(none) %2, ptr readnone captures(none) %3, ptr readnone captures(none) %4, ptr noundef writeonly captures(none) %5) #0 {
  %7 = alloca i16, align 2
  %8 = alloca i32, align 4
  %9 = alloca i32, align 4
  %10 = alloca i32, align 4
  %11 = alloca i32, align 4
  call void @llvm.lifetime.start.p0(i64 4, ptr nonnull %8) #6
  store i32 0, ptr %8, align 4, !tbaa !3
  call void @llvm.lifetime.start.p0(i64 4, ptr nonnull %9) #6
  store i32 0, ptr %9, align 4, !tbaa !3
  call void @llvm.lifetime.start.p0(i64 4, ptr nonnull %10) #6
  store i32 0, ptr %10, align 4, !tbaa !36
  call void @llvm.lifetime.start.p0(i64 4, ptr nonnull %11) #6
  store i32 0, ptr %11, align 4, !tbaa !36
  %12 = getelementptr inbounds nuw i8, ptr %1, i64 6
  %13 = load i16, ptr %12, align 2, !tbaa !16
  call void @llvm.lifetime.start.p0(i64 2, ptr nonnull %7) #6
  br label %14

14:                                               ; preds = %.critedge2.i, %6
  %.0.i = phi i32 [ 0, %6 ], [ %22, %.critedge2.i ]
  %15 = call signext i8 @ufile_getch_77(ptr noundef %0, ptr noundef nonnull %7)
  switch i8 %15, label %.critedge.i [
    i8 1, label %16
    i8 0, label %_ZL23u_scanf_skip_leading_wsP5UFILEDs.exit
  ]

16:                                               ; preds = %14
  %17 = load i16, ptr %7, align 2, !tbaa !7
  %18 = icmp eq i16 %17, %13
  br i1 %18, label %.critedge2.i, label %19

19:                                               ; preds = %16
  %20 = zext i16 %17 to i32
  %21 = call signext i8 @u_isWhitespace_77(i32 noundef %20)
  %.not.i = icmp eq i8 %21, 0
  br i1 %.not.i, label %.critedge.i, label %.critedge2.i

.critedge2.i:                                     ; preds = %19, %16
  %22 = add nuw nsw i32 %.0.i, 1
  br label %14, !llvm.loop !38

.critedge.i:                                      ; preds = %19, %14
  %23 = load i16, ptr %7, align 2, !tbaa !7
  %24 = zext i16 %23 to i32
  %25 = call i32 @u_fungetc_77(i32 noundef %24, ptr noundef %0)
  br label %_ZL23u_scanf_skip_leading_wsP5UFILEDs.exit

_ZL23u_scanf_skip_leading_wsP5UFILEDs.exit:       ; preds = %14, %.critedge.i
  call void @llvm.lifetime.end.p0(i64 2, ptr nonnull %7) #6
  call void @_Z26ufile_fill_uchar_buffer_77P5UFILE(ptr noundef %0)
  %26 = getelementptr inbounds nuw i8, ptr %0, i64 24
  %27 = getelementptr inbounds nuw i8, ptr %0, i64 32
  %28 = load ptr, ptr %27, align 8, !tbaa !39
  %29 = load ptr, ptr %26, align 8, !tbaa !47
  %30 = load i32, ptr %1, align 4, !tbaa !14
  %31 = getelementptr inbounds nuw i8, ptr %0, i64 48
  %32 = call ptr @u_locbund_getNumberFormat_77(ptr noundef nonnull %31, i32 noundef 4)
  %33 = call ptr @u_locbund_getNumberFormat_77(ptr noundef nonnull %31, i32 noundef 1)
  %34 = icmp eq ptr %32, null
  %35 = icmp eq ptr %33, null
  %or.cond = select i1 %34, i1 true, i1 %35
  br i1 %or.cond, label %72, label %36

36:                                               ; preds = %_ZL23u_scanf_skip_leading_wsP5UFILEDs.exit
  %.not = icmp eq i32 %30, -1
  %37 = ptrtoint ptr %28 to i64
  %38 = ptrtoint ptr %29 to i64
  %39 = sub i64 %37, %38
  %40 = lshr exact i64 %39, 1
  %41 = trunc i64 %40 to i32
  %. = call i32 @llvm.smin.i32(i32 %30, i32 %41)
  %.044 = select i1 %.not, i32 %41, i32 %.
  %42 = call fastcc noundef i32 @_ZL34u_scanf_skip_leading_positive_signP5UFILEPPvP10UErrorCode(ptr noundef nonnull %0, ptr noundef nonnull %33, i32 0)
  %43 = add nsw i32 %42, %.0.i
  %44 = load ptr, ptr %26, align 8, !tbaa !47
  %45 = call double @unum_parseDouble_77(ptr noundef nonnull %32, ptr noundef %44, i32 noundef %.044, ptr noundef nonnull %8, ptr noundef nonnull %10)
  %46 = load ptr, ptr %26, align 8, !tbaa !47
  %47 = call double @unum_parseDouble_77(ptr noundef nonnull %33, ptr noundef %46, i32 noundef %.044, ptr noundef nonnull %9, ptr noundef nonnull %11)
  %48 = load i32, ptr %8, align 4, !tbaa !3
  %49 = load i32, ptr %9, align 4, !tbaa !3
  %50 = icmp sgt i32 %48, %49
  %.56 = select i1 %50, double %45, double %47
  %.57 = call i32 @llvm.smax.i32(i32 %48, i32 %49)
  %51 = load ptr, ptr %26, align 8, !tbaa !47
  %52 = sext i32 %.57 to i64
  %53 = getelementptr inbounds i16, ptr %51, i64 %52
  store ptr %53, ptr %26, align 8, !tbaa !47
  %54 = getelementptr inbounds nuw i8, ptr %1, i64 8
  %55 = load i8, ptr %54, align 4, !tbaa !19
  %.not52 = icmp eq i8 %55, 0
  br i1 %.not52, label %56, label %69

56:                                               ; preds = %36
  %57 = getelementptr inbounds nuw i8, ptr %1, i64 11
  %58 = load i8, ptr %57, align 1, !tbaa !24
  %.not53 = icmp eq i8 %58, 0
  br i1 %.not53, label %61, label %59

59:                                               ; preds = %56
  %60 = load ptr, ptr %2, align 8, !tbaa !33
  store double %.56, ptr %60, align 8, !tbaa !49
  br label %69

61:                                               ; preds = %56
  %62 = getelementptr inbounds nuw i8, ptr %1, i64 9
  %63 = load i8, ptr %62, align 1, !tbaa !25
  %.not54 = icmp eq i8 %63, 0
  %64 = load ptr, ptr %2, align 8, !tbaa !33
  br i1 %.not54, label %67, label %65

65:                                               ; preds = %61
  %66 = fpext double %.56 to x86_fp80
  store x86_fp80 %66, ptr %64, align 16, !tbaa !51
  br label %69

67:                                               ; preds = %61
  %68 = fptrunc double %.56 to float
  store float %68, ptr %64, align 4, !tbaa !53
  br label %69

69:                                               ; preds = %59, %67, %65, %36
  %70 = zext i1 %.not52 to i32
  store i32 %70, ptr %5, align 4, !tbaa !3
  %71 = add nsw i32 %43, %.57
  br label %72

72:                                               ; preds = %_ZL23u_scanf_skip_leading_wsP5UFILEDs.exit, %69
  %.043 = phi i32 [ %71, %69 ], [ 0, %_ZL23u_scanf_skip_leading_wsP5UFILEDs.exit ]
  call void @llvm.lifetime.end.p0(i64 4, ptr nonnull %11) #6
  call void @llvm.lifetime.end.p0(i64 4, ptr nonnull %10) #6
  call void @llvm.lifetime.end.p0(i64 4, ptr nonnull %9) #6
  call void @llvm.lifetime.end.p0(i64 4, ptr nonnull %8) #6
  ret i32 %.043
}